#include <math.h>
#include <stdio.h>
#include <stdlib.h>
#include <string.h>

int reverse(int num)
{
	int l = 10;
	int k = 0;
	if(-0 == num)
		k = 0;
	else if((num>=-9)&&(num<=9))
		k = num;
	else if(num>9)
	{
		int a[100];
		int i = 0;
		while(1)
		{
			a[i] = num % 10;
			num = (num - a[i]) / 10;
			i++;
			if (num<=9)
			{
				a[i] = num;
				break;
			}
		}
		int p = i + 1;
		while(p>0)
		{
			k = (int)(a[i+1-p] * pow((double)l,p-1)) + k;
			p--;
		}
	}
	else
	{
		num = -num;
		int a[100];
		int i = 0;
		while(1)
		{
			a[i] = num % 10;
			num = (num - a[i]) / 10;
			i++;
			if (num<=9)
			{
				a[i] = num;
				break;
			}
		}
		int p = i + 1;
		while(p>0)
		{
			k = (int)(a[i+1-p] * pow((double)l,p-1)) + k;
			p--;
		}
		k = -k;
	}
	return k;
}
int main()
{
	int i = 1;
	while(i<=6)
	{
		int n;
		scanf("%d",&n);
		printf("%d\n",(int)reverse(n));
		i++;
	}
	return 0;
}